CCS PCM C Compiler, Version 4.114, 93460303               28-may.-18 09:55

               Filename: C:\Users\WASP\Desktop\PIC16f84a\Programa3\AlternandoLEDS.lst

               ROM used: 83 words (8%)
                         Largest free fragment is 941
               RAM used: 5 (7%) at main() level
                         7 (10%) worst case
               Stack:    1 locations

*
0000:  MOVLW  00
0001:  MOVWF  0A
0002:  GOTO   018
0003:  NOP
.................... // Noé Ricoy 
.................... // Programa P3 Alternando leds 
.................... // Diseño logica 
.................... // UPEM 28/05/2018 
.................... #include <16f84a.h> 
.................... //////// Standard Header file for the PIC16F84A device //////////////// 
.................... #device PIC16F84A 
.................... #list 
....................  
.................... #fuses XT, NOWDT // Fuses, son las configuraciones con las que arranca el PIC 
.................... #use delay (clock=4000000) 
0004:  MOVLW  13
0005:  MOVWF  04
0006:  MOVF   00,W
0007:  BTFSC  03.2
0008:  GOTO   017
0009:  MOVLW  01
000A:  MOVWF  0D
000B:  CLRF   0C
000C:  DECFSZ 0C,F
000D:  GOTO   00C
000E:  DECFSZ 0D,F
000F:  GOTO   00B
0010:  MOVLW  4A
0011:  MOVWF  0C
0012:  DECFSZ 0C,F
0013:  GOTO   012
0014:  GOTO   015
0015:  DECFSZ 00,F
0016:  GOTO   009
0017:  RETURN
....................  
.................... void main() { 
0018:  CLRF   04
0019:  MOVLW  1F
001A:  ANDWF  03,F
....................    set_tris_b(0x00); // Usar todas las filas B 
001B:  MOVLW  00
001C:  TRIS   6
....................    output_b (0x00); 
001D:  BSF    03.5
001E:  CLRF   06
001F:  BCF    03.5
0020:  CLRF   06
....................    int i; 
....................    for (i = 0; 0 <= 2; i++) { 
0021:  CLRF   11
....................       output_HIGH(pin_a1); // Prender la compuerta A-1 
0022:  BSF    03.5
0023:  BCF    05.1
0024:  BCF    03.5
0025:  BSF    05.1
....................       delay_ms(500); 
0026:  MOVLW  02
0027:  MOVWF  12
0028:  MOVLW  FA
0029:  MOVWF  13
002A:  CALL   004
002B:  DECFSZ 12,F
002C:  GOTO   028
....................       output_LOW(pin_a1);// APAGAR la puerta a-1 
002D:  BSF    03.5
002E:  BCF    05.1
002F:  BCF    03.5
0030:  BCF    05.1
....................       delay_ms(500); 
0031:  MOVLW  02
0032:  MOVWF  12
0033:  MOVLW  FA
0034:  MOVWF  13
0035:  CALL   004
0036:  DECFSZ 12,F
0037:  GOTO   033
....................    } 
0038:  INCF   11,F
0039:  GOTO   022
....................     
....................    while(true) { 
....................       output_HIGH(pin_b0); //Prender b0 
003A:  BSF    03.5
003B:  BCF    06.0
003C:  BCF    03.5
003D:  BSF    06.0
....................       output_LOW(pin_b1); // Apagar b1 
003E:  BSF    03.5
003F:  BCF    06.1
0040:  BCF    03.5
0041:  BCF    06.1
....................       delay_ms(500); 
0042:  MOVLW  02
0043:  MOVWF  12
0044:  MOVLW  FA
0045:  MOVWF  13
0046:  CALL   004
0047:  DECFSZ 12,F
0048:  GOTO   044
....................       output_HIGH(pin_b1); // Prender b1 
0049:  BSF    03.5
004A:  BCF    06.1
004B:  BCF    03.5
004C:  BSF    06.1
....................       output_LOW(pin_b0); // Apagar b0 
004D:  BSF    03.5
004E:  BCF    06.0
004F:  BCF    03.5
0050:  BCF    06.0
....................    } 
0051:  GOTO   03A
.................... } 
0052:  SLEEP

Configuration Fuses:
   Word  1: 3FF1   XT NOWDT PUT NOPROTECT
